(lp0
S'http://alabama.backpage.com/'
p1
aS'http://auburn.backpage.com/'
p2
aS'http://birmingham.backpage.com/'
p3
aS'http://dothan.backpage.com/'
p4
aS'http://gadsden.backpage.com/'
p5
aS'http://huntsville.backpage.com/'
p6
aS'http://mobile.backpage.com/'
p7
aS'http://montgomery.backpage.com/'
p8
aS'http://shoals.backpage.com/'
p9
aS'http://tuscaloosa.backpage.com/'
p10
aS'http://alaska.backpage.com/'
p11
aS'http://anchorage.backpage.com/'
p12
aS'http://fairbanks.backpage.com/'
p13
aS'http://juneau.backpage.com/'
p14
aS'http://kenaipeninsula.backpage.com/'
p15
aS'http://arizona.backpage.com/'
p16
aS'http://flagstaff.backpage.com/'
p17
aS'http://mohave.backpage.com/'
p18
aS'http://phoenix.backpage.com/'
p19
aS'http://prescott.backpage.com/'
p20
aS'http://showlow.backpage.com/'
p21
aS'http://sierravista.backpage.com/'
p22
aS'http://tucson.backpage.com/'
p23
aS'http://yuma.backpage.com/'
p24
aS'http://arkansas.backpage.com/'
p25
aS'http://fayetteville.backpage.com/'
p26
aS'http://fortsmith.backpage.com/'
p27
aS'http://jonesboro.backpage.com/'
p28
aS'http://littlerock.backpage.com/'
p29
aS'http://bakersfield.backpage.com/'
p30
aS'http://chico.backpage.com/'
p31
aS'http://fresno.backpage.com/'
p32
aS'http://humboldt.backpage.com/'
p33
aS'http://imperial.backpage.com/'
p34
aS'http://inlandempire.backpage.com/'
p35
aS'http://longbeach.backpage.com/'
p36
aS'http://losangeles.backpage.com/'
p37
aS'http://mendocino.backpage.com/'
p38
aS'http://merced.backpage.com/'
p39
aS'http://modesto.backpage.com/'
p40
aS'http://monterey.backpage.com/'
p41
aS'http://northbay.backpage.com/'
p42
aS'http://orangecounty.backpage.com/'
p43
aS'http://eastbay.backpage.com/'
p44
aS'http://palmsprings.backpage.com/'
p45
aS'http://palmdale.backpage.com/'
p46
aS'http://redding.backpage.com/'
p47
aS'http://sacramento.backpage.com/'
p48
aS'http://sandiego.backpage.com/'
p49
aS'http://sanfernandovalley.backpage.com/'
p50
aS'http://sf.backpage.com/'
p51
aS'http://sangabrielvalley.backpage.com/'
p52
aS'http://sanjose.backpage.com/'
p53
aS'http://sanluisobispo.backpage.com/'
p54
aS'http://sanmateo.backpage.com/'
p55
aS'http://santabarbara.backpage.com/'
p56
aS'http://santacruz.backpage.com/'
p57
aS'http://santamaria.backpage.com/'
p58
aS'http://siskiyou.backpage.com/'
p59
aS'http://stockton.backpage.com/'
p60
aS'http://susanville.backpage.com/'
p61
aS'http://ventura.backpage.com/'
p62
aS'http://visalia.backpage.com/'
p63
aS'http://colorado.backpage.com/'
p64
aS'http://boulder.backpage.com/'
p65
aS'http://coloradosprings.backpage.com/'
p66
aS'http://denver.backpage.com/'
p67
aS'http://fortcollins.backpage.com/'
p68
aS'http://pueblo.backpage.com/'
p69
aS'http://rockies.backpage.com/'
p70
aS'http://westslope.backpage.com/'
p71
aS'http://connecticut.backpage.com/'
p72
aS'http://newlondon.backpage.com/'
p73
aS'http://hartford.backpage.com/'
p74
aS'http://newhaven.backpage.com/'
p75
aS'http://nwct.backpage.com/'
p76
aS'http://delaware.backpage.com/'
p77
aS'http://washingtondc.backpage.com/'
p78
aS'http://nova.backpage.com/'
p79
aS'http://southernmaryland.backpage.com/'
p80
aS'http://dc.backpage.com/'
p81
aS'http://daytona.backpage.com/'
p82
aS'http://fortmyers.backpage.com/'
p83
aS'http://ftlauderdale.backpage.com/'
p84
aS'http://gainesville.backpage.com/'
p85
aS'http://jacksonville.backpage.com/'
p86
aS'http://keys.backpage.com/'
p87
aS'http://lakeland.backpage.com/'
p88
aS'http://miami.backpage.com/'
p89
aS'http://ocala.backpage.com/'
p90
aS'http://okaloosa.backpage.com/'
p91
aS'http://orlando.backpage.com/'
p92
aS'http://panamacity.backpage.com/'
p93
aS'http://pensacola.backpage.com/'
p94
aS'http://sarasota.backpage.com/'
p95
aS'http://spacecoast.backpage.com/'
p96
aS'http://staugustine.backpage.com/'
p97
aS'http://tallahassee.backpage.com/'
p98
aS'http://tampa.backpage.com/'
p99
aS'http://treasurecoast.backpage.com/'
p100
aS'http://westpalmbeach.backpage.com/'
p101
aS'http://georgia.backpage.com/'
p102
aS'http://albanyga.backpage.com/'
p103
aS'http://athensga.backpage.com/'
p104
aS'http://atlanta.backpage.com/'
p105
aS'http://augusta.backpage.com/'
p106
aS'http://brunswick.backpage.com/'
p107
aS'http://columbusga.backpage.com/'
p108
aS'http://macon.backpage.com/'
p109
aS'http://nwga.backpage.com/'
p110
aS'http://savannah.backpage.com/'
p111
aS'http://statesboro.backpage.com/'
p112
aS'http://valdosta.backpage.com/'
p113
aS'http://hawaii.backpage.com/'
p114
aS'http://bigisland.backpage.com/'
p115
aS'http://honolulu.backpage.com/'
p116
aS'http://kauai.backpage.com/'
p117
aS'http://maui.backpage.com/'
p118
aS'http://idaho.backpage.com/'
p119
aS'http://boise.backpage.com/'
p120
aS'http://eastidaho.backpage.com/'
p121
aS'http://lewiston.backpage.com/'
p122
aS'http://twinfalls.backpage.com/'
p123
aS'http://illinois.backpage.com/'
p124
aS'http://bloomington.backpage.com/'
p125
aS'http://carbondale.backpage.com/'
p126
aS'http://chambana.backpage.com/'
p127
aS'http://chicago.backpage.com/'
p128
aS'http://decatur.backpage.com/'
p129
aS'http://lasalle.backpage.com/'
p130
aS'http://mattoon.backpage.com/'
p131
aS'http://peoria.backpage.com/'
p132
aS'http://rockford.backpage.com/'
p133
aS'http://springfieldil.backpage.com/'
p134
aS'http://quincy.backpage.com/'
p135
aS'http://indiana.backpage.com/'
p136
aS'http://bloomingtonin.backpage.com/'
p137
aS'http://evansville.backpage.com/'
p138
aS'http://fortwayne.backpage.com/'
p139
aS'http://indianapolis.backpage.com/'
p140
aS'http://kokomo.backpage.com/'
p141
aS'http://tippecanoe.backpage.com/'
p142
aS'http://muncie.backpage.com/'
p143
aS'http://richmondin.backpage.com/'
p144
aS'http://southbend.backpage.com/'
p145
aS'http://terrehaute.backpage.com/'
p146
aS'http://iowa.backpage.com/'
p147
aS'http://ames.backpage.com/'
p148
aS'http://cedarrapids.backpage.com/'
p149
aS'http://desmoines.backpage.com/'
p150
aS'http://dubuque.backpage.com/'
p151
aS'http://fortdodge.backpage.com/'
p152
aS'http://iowacity.backpage.com/'
p153
aS'http://masoncity.backpage.com/'
p154
aS'http://ottumwa.backpage.com/'
p155
aS'http://quadcities.backpage.com/'
p156
aS'http://siouxcity.backpage.com/'
p157
aS'http://waterloo.backpage.com/'
p158
aS'http://kansas.backpage.com/'
p159
aS'http://lawrence.backpage.com/'
p160
aS'http://manhattanks.backpage.com/'
p161
aS'http://salina.backpage.com/'
p162
aS'http://topeka.backpage.com/'
p163
aS'http://wichita.backpage.com/'
p164
aS'http://kentucky.backpage.com/'
p165
aS'http://bowlinggreen.backpage.com/'
p166
aS'http://eastky.backpage.com/'
p167
aS'http://lexington.backpage.com/'
p168
aS'http://louisville.backpage.com/'
p169
aS'http://owensboro.backpage.com/'
p170
aS'http://westky.backpage.com/'
p171
aS'http://louisiana.backpage.com/'
p172
aS'http://alexandria.backpage.com/'
p173
aS'http://batonrouge.backpage.com/'
p174
aS'http://houma.backpage.com/'
p175
aS'http://lafayette.backpage.com/'
p176
aS'http://lakecharles.backpage.com/'
p177
aS'http://monroe.backpage.com/'
p178
aS'http://neworleans.backpage.com/'
p179
aS'http://shreveport.backpage.com/'
p180
aS'http://maine.backpage.com/'
p181
aS'http://maryland.backpage.com/'
p182
aS'http://annapolis.backpage.com/'
p183
aS'http://baltimore.backpage.com/'
p184
aS'http://cumberlandvalley.backpage.com/'
p185
aS'http://easternshore.backpage.com/'
p186
aS'http://frederick.backpage.com/'
p187
aS'http://westernmaryland.backpage.com/'
p188
aS'http://massachusetts.backpage.com/'
p189
aS'http://boston.backpage.com/'
p190
aS'http://capecod.backpage.com/'
p191
aS'http://southcoast.backpage.com/'
p192
aS'http://springfield.backpage.com/'
p193
aS'http://worcester.backpage.com/'
p194
aS'http://michigan.backpage.com/'
p195
aS'http://annarbor.backpage.com/'
p196
aS'http://battlecreek.backpage.com/'
p197
aS'http://centralmich.backpage.com/'
p198
aS'http://detroit.backpage.com/'
p199
aS'http://flint.backpage.com/'
p200
aS'http://grandrapids.backpage.com/'
p201
aS'http://holland.backpage.com/'
p202
aS'http://jacksonmi.backpage.com/'
p203
aS'http://kalamazoo.backpage.com/'
p204
aS'http://lansing.backpage.com/'
p205
aS'http://monroemi.backpage.com/'
p206
aS'http://muskegon.backpage.com/'
p207
aS'http://northernmichigan.backpage.com/'
p208
aS'http://porthuron.backpage.com/'
p209
aS'http://saginaw.backpage.com/'
p210
aS'http://swmi.backpage.com/'
p211
aS'http://up.backpage.com/'
p212
aS'http://minnesota.backpage.com/'
p213
aS'http://bemidji.backpage.com/'
p214
aS'http://brainerd.backpage.com/'
p215
aS'http://duluth.backpage.com/'
p216
aS'http://mankato.backpage.com/'
p217
aS'http://minneapolis.backpage.com/'
p218
aS'http://rochestermn.backpage.com/'
p219
aS'http://stcloud.backpage.com/'
p220
aS'http://mississippi.backpage.com/'
p221
aS'http://biloxi.backpage.com/'
p222
aS'http://hattiesburg.backpage.com/'
p223
aS'http://jackson.backpage.com/'
p224
aS'http://meridian.backpage.com/'
p225
aS'http://natchez.backpage.com/'
p226
aS'http://northmiss.backpage.com/'
p227
aS'http://missouri.backpage.com/'
p228
aS'http://columbiamo.backpage.com/'
p229
aS'http://joplin.backpage.com/'
p230
aS'http://kc.backpage.com/'
p231
aS'http://kirksville.backpage.com/'
p232
aS'http://loz.backpage.com/'
p233
aS'http://semo.backpage.com/'
p234
aS'http://springfieldmo.backpage.com/'
p235
aS'http://stjoseph.backpage.com/'
p236
aS'http://stlouis.backpage.com/'
p237
aS'http://montana.backpage.com/'
p238
aS'http://billings.backpage.com/'
p239
aS'http://bozeman.backpage.com/'
p240
aS'http://butte.backpage.com/'
p241
aS'http://greatfalls.backpage.com/'
p242
aS'http://helena.backpage.com/'
p243
aS'http://kalispell.backpage.com/'
p244
aS'http://missoula.backpage.com/'
p245
aS'http://nebraska.backpage.com/'
p246
aS'http://grandisland.backpage.com/'
p247
aS'http://lincoln.backpage.com/'
p248
aS'http://northplatte.backpage.com/'
p249
aS'http://omaha.backpage.com/'
p250
aS'http://scottsbluff.backpage.com/'
p251
aS'http://nevada.backpage.com/'
p252
aS'http://elko.backpage.com/'
p253
aS'http://lasvegas.backpage.com/'
p254
aS'http://reno.backpage.com/'
p255
aS'http://newhampshire.backpage.com/'
p256
aS'http://newjersey.backpage.com/'
p257
aS'http://centraljersey.backpage.com/'
p258
aS'http://jerseyshore.backpage.com/'
p259
aS'http://northjersey.backpage.com/'
p260
aS'http://southjersey.backpage.com/'
p261
aS'http://newmexico.backpage.com/'
p262
aS'http://albuquerque.backpage.com/'
p263
aS'http://clovis.backpage.com/'
p264
aS'http://farmington.backpage.com/'
p265
aS'http://lascruces.backpage.com/'
p266
aS'http://roswell.backpage.com/'
p267
aS'http://santafe.backpage.com/'
p268
aS'http://newyork.backpage.com/'
p269
aS'http://albany.backpage.com/'
p270
aS'http://binghamton.backpage.com/'
p271
aS'http://bronx.backpage.com/'
p272
aS'http://brooklyn.backpage.com/'
p273
aS'http://buffalo.backpage.com/'
p274
aS'http://catskills.backpage.com/'
p275
aS'http://chautauqua.backpage.com/'
p276
aS'http://elmira.backpage.com/'
p277
aS'http://fairfield.backpage.com/'
p278
aS'http://fingerlakes.backpage.com/'
p279
aS'http://glensfalls.backpage.com/'
p280
aS'http://hudsonvalley.backpage.com/'
p281
aS'http://ithaca.backpage.com/'
p282
aS'http://longisland.backpage.com/'
p283
aS'http://manhattan.backpage.com/'
p284
aS'http://oneonta.backpage.com/'
p285
aS'http://plattsburgh.backpage.com/'
p286
aS'http://potsdam.backpage.com/'
p287
aS'http://queens.backpage.com/'
p288
aS'http://rochester.backpage.com/'
p289
aS'http://statenisland.backpage.com/'
p290
aS'http://syracuse.backpage.com/'
p291
aS'http://twintiers.backpage.com/'
p292
aS'http://utica.backpage.com/'
p293
aS'http://watertown.backpage.com/'
p294
aS'http://westchester.backpage.com/'
p295
aS'http://northcarolina.backpage.com/'
p296
aS'http://asheville.backpage.com/'
p297
aS'http://boone.backpage.com/'
p298
aS'http://charlotte.backpage.com/'
p299
aS'http://easternnc.backpage.com/'
p300
aS'http://fayettevillenc.backpage.com/'
p301
aS'http://greensboro.backpage.com/'
p302
aS'http://hickory.backpage.com/'
p303
aS'http://outerbanks.backpage.com/'
p304
aS'http://raleigh.backpage.com/'
p305
aS'http://wilmington.backpage.com/'
p306
aS'http://winstonsalem.backpage.com/'
p307
aS'http://northdakota.backpage.com/'
p308
aS'http://bismarck.backpage.com/'
p309
aS'http://fargo.backpage.com/'
p310
aS'http://grandforks.backpage.com/'
p311
aS'http://minot.backpage.com/'
p312
aS'http://ohio.backpage.com/'
p313
aS'http://akroncanton.backpage.com/'
p314
aS'http://ashtabula.backpage.com/'
p315
aS'http://athensoh.backpage.com/'
p316
aS'http://chillicothe.backpage.com/'
p317
aS'http://cincinnati.backpage.com/'
p318
aS'http://cleveland.backpage.com/'
p319
aS'http://columbus.backpage.com/'
p320
aS'http://dayton.backpage.com/'
p321
aS'http://huntingtonoh.backpage.com/'
p322
aS'http://limaoh.backpage.com/'
p323
aS'http://mansfield.backpage.com/'
p324
aS'http://sandusky.backpage.com/'
p325
aS'http://toledo.backpage.com/'
p326
aS'http://tuscarawas.backpage.com/'
p327
aS'http://youngstown.backpage.com/'
p328
aS'http://zanesville.backpage.com/'
p329
aS'http://oklahoma.backpage.com/'
p330
aS'http://lawton.backpage.com/'
p331
aS'http://oklahomacity.backpage.com/'
p332
aS'http://stillwater.backpage.com/'
p333
aS'http://tulsa.backpage.com/'
p334
aS'http://oregon.backpage.com/'
p335
aS'http://bend.backpage.com/'
p336
aS'http://corvallis.backpage.com/'
p337
aS'http://eastoregon.backpage.com/'
p338
aS'http://eugene.backpage.com/'
p339
aS'http://klamath.backpage.com/'
p340
aS'http://medford.backpage.com/'
p341
aS'http://oregoncoast.backpage.com/'
p342
aS'http://portland.backpage.com/'
p343
aS'http://roseburg.backpage.com/'
p344
aS'http://salem.backpage.com/'
p345
aS'http://pennsylvania.backpage.com/'
p346
aS'http://allentown.backpage.com/'
p347
aS'http://altoona.backpage.com/'
p348
aS'http://chambersburg.backpage.com/'
p349
aS'http://erie.backpage.com/'
p350
aS'http://harrisburg.backpage.com/'
p351
aS'http://lancaster.backpage.com/'
p352
aS'http://meadville.backpage.com/'
p353
aS'http://philadelphia.backpage.com/'
p354
aS'http://pittsburgh.backpage.com/'
p355
aS'http://poconos.backpage.com/'
p356
aS'http://reading.backpage.com/'
p357
aS'http://scranton.backpage.com/'
p358
aS'http://pennstate.backpage.com/'
p359
aS'http://williamsport.backpage.com/'
p360
aS'http://york.backpage.com/'
p361
aS'http://providence.backpage.com/'
p362
aS'http://southcarolina.backpage.com/'
p363
aS'http://charleston.backpage.com/'
p364
aS'http://columbia.backpage.com/'
p365
aS'http://florence.backpage.com/'
p366
aS'http://greenville.backpage.com/'
p367
aS'http://hiltonhead.backpage.com/'
p368
aS'http://myrtlebeach.backpage.com/'
p369
aS'http://southdakota.backpage.com/'
p370
aS'http://aberdeen-sd.backpage.com/'
p371
aS'http://pierre.backpage.com/'
p372
aS'http://rapidcity.backpage.com/'
p373
aS'http://siouxfalls.backpage.com/'
p374
aS'http://tennessee.backpage.com/'
p375
aS'http://chattanooga.backpage.com/'
p376
aS'http://clarksville.backpage.com/'
p377
aS'http://cookeville.backpage.com/'
p378
aS'http://knoxville.backpage.com/'
p379
aS'http://memphis.backpage.com/'
p380
aS'http://nashville.backpage.com/'
p381
aS'http://tricities.backpage.com/'
p382
aS'http://abilene.backpage.com/'
p383
aS'http://amarillo.backpage.com/'
p384
aS'http://austin.backpage.com/'
p385
aS'http://beaumont.backpage.com/'
p386
aS'http://brownsville.backpage.com/'
p387
aS'http://collegestation.backpage.com/'
p388
aS'http://corpuschristi.backpage.com/'
p389
aS'http://dallas.backpage.com/'
p390
aS'http://delrio.backpage.com/'
p391
aS'http://denton.backpage.com/'
p392
aS'http://elpaso.backpage.com/'
p393
aS'http://fortworth.backpage.com/'
p394
aS'http://galveston.backpage.com/'
p395
aS'http://houston.backpage.com/'
p396
aS'http://huntsvilletx.backpage.com/'
p397
aS'http://killeen.backpage.com/'
p398
aS'http://laredo.backpage.com/'
p399
aS'http://lubbock.backpage.com/'
p400
aS'http://mcallen.backpage.com/'
p401
aS'http://arlington.backpage.com/'
p402
aS'http://odessa.backpage.com/'
p403
aS'http://sanantonio.backpage.com/'
p404
aS'http://sanmarcos.backpage.com/'
p405
aS'http://texarkana.backpage.com/'
p406
aS'http://texoma.backpage.com/'
p407
aS'http://tyler.backpage.com/'
p408
aS'http://victoriatx.backpage.com/'
p409
aS'http://waco.backpage.com/'
p410
aS'http://wichitafalls.backpage.com/'
p411
aS'http://utah.backpage.com/'
p412
aS'http://logan.backpage.com/'
p413
aS'http://ogden.backpage.com/'
p414
aS'http://provo.backpage.com/'
p415
aS'http://saltlakecity.backpage.com/'
p416
aS'http://stgeorge.backpage.com/'
p417
aS'http://burlington.backpage.com/'
p418
aS'http://virginia.backpage.com/'
p419
aS'http://charlottesville.backpage.com/'
p420
aS'http://chesapeake.backpage.com/'
p421
aS'http://danville.backpage.com/'
p422
aS'http://fredericksburg.backpage.com/'
p423
aS'http://hampton.backpage.com/'
p424
aS'http://harrisonburg.backpage.com/'
p425
aS'http://lynchburg.backpage.com/'
p426
aS'http://blacksburg.backpage.com/'
p427
aS'http://newportnews.backpage.com/'
p428
aS'http://norfolk.backpage.com/'
p429
aS'http://portsmouth.backpage.com/'
p430
aS'http://richmond.backpage.com/'
p431
aS'http://roanoke.backpage.com/'
p432
aS'http://swva.backpage.com/'
p433
aS'http://suffolk.backpage.com/'
p434
aS'http://virginiabeach.backpage.com/'
p435
aS'http://washington.backpage.com/'
p436
aS'http://bellingham.backpage.com/'
p437
aS'http://everett.backpage.com/'
p438
aS'http://moseslake.backpage.com/'
p439
aS'http://mtvernon.backpage.com/'
p440
aS'http://olympia.backpage.com/'
p441
aS'http://pullman.backpage.com/'
p442
aS'http://seattle.backpage.com/'
p443
aS'http://spokane.backpage.com/'
p444
aS'http://tacoma.backpage.com/'
p445
aS'http://tricitieswa.backpage.com/'
p446
aS'http://wenatchee.backpage.com/'
p447
aS'http://yakima.backpage.com/'
p448
aS'http://westvirginia.backpage.com/'
p449
aS'http://charlestonwv.backpage.com/'
p450
aS'http://huntington.backpage.com/'
p451
aS'http://martinsburg.backpage.com/'
p452
aS'http://morgantown.backpage.com/'
p453
aS'http://parkersburg.backpage.com/'
p454
aS'http://southernwestvirginia.backpage.com/'
p455
aS'http://wheeling.backpage.com/'
p456
aS'http://wisconsin.backpage.com/'
p457
aS'http://appleton.backpage.com/'
p458
aS'http://eauclaire.backpage.com/'
p459
aS'http://greenbay.backpage.com/'
p460
aS'http://janesville.backpage.com/'
p461
aS'http://lacrosse.backpage.com/'
p462
aS'http://madison.backpage.com/'
p463
aS'http://milwaukee.backpage.com/'
p464
aS'http://racine.backpage.com/'
p465
aS'http://sheboygan.backpage.com/'
p466
aS'http://wausau.backpage.com/'
p467
aS'http://wyoming.backpage.com/'
p468
aS'http://alberta.backpage.com/'
p469
aS'http://calgary.backpage.com/'
p470
aS'http://edmonton.backpage.com/'
p471
aS'http://ftmcmurray.backpage.com/'
p472
aS'http://lethbridge.backpage.com/'
p473
aS'http://medicinehat.backpage.com/'
p474
aS'http://reddeer.backpage.com/'
p475
aS'http://britishcolumbia.backpage.com/'
p476
aS'http://abbotsford.backpage.com/'
p477
aS'http://cariboo.backpage.com/'
p478
aS'http://comoxvalley.backpage.com/'
p479
aS'http://cranbrook.backpage.com/'
p480
aS'http://kamloops.backpage.com/'
p481
aS'http://kelowna.backpage.com/'
p482
aS'http://nanaimo.backpage.com/'
p483
aS'http://peace.backpage.com/'
p484
aS'http://princegeorge.backpage.com/'
p485
aS'http://skeena.backpage.com/'
p486
aS'http://sunshine.backpage.com/'
p487
aS'http://vancouver.backpage.com/'
p488
aS'http://victoria.backpage.com/'
p489
aS'http://whistler.backpage.com/'
p490
aS'http://winnipeg.backpage.com/'
p491
aS'http://newbrunswick.backpage.com/'
p492
aS'http://stjohns.backpage.com/'
p493
aS'http://yellowknife.backpage.com/'
p494
aS'http://halifax.backpage.com/'
p495
aS'http://ontario.backpage.com/'
p496
aS'http://barrie.backpage.com/'
p497
aS'http://belleville.backpage.com/'
p498
aS'http://brantford.backpage.com/'
p499
aS'http://chatham.backpage.com/'
p500
aS'http://cornwall.backpage.com/'
p501
aS'http://guelph.backpage.com/'
p502
aS'http://hamilton.backpage.com/'
p503
aS'http://kingston.backpage.com/'
p504
aS'http://kitchener.backpage.com/'
p505
aS'http://londonon.backpage.com/'
p506
aS'http://niagara.backpage.com/'
p507
aS'http://ottawa.backpage.com/'
p508
aS'http://owensound.backpage.com/'
p509
aS'http://peterborough.backpage.com/'
p510
aS'http://sarnia.backpage.com/'
p511
aS'http://sault.backpage.com/'
p512
aS'http://sudbury.backpage.com/'
p513
aS'http://thunderbay.backpage.com/'
p514
aS'http://toronto.backpage.com/'
p515
aS'http://windsor.backpage.com/'
p516
aS'http://quebec.backpage.com/'
p517
aS'http://montreal.backpage.com/'
p518
aS'http://quebeccity.backpage.com/'
p519
aS'http://saguenay.backpage.com/'
p520
aS'http://sherbrooke.backpage.com/'
p521
aS'http://troisrivieres.backpage.com/'
p522
aS'http://saskatchewan.backpage.com/'
p523
aS'http://regina.backpage.com/'
p524
aS'http://saskatoon.backpage.com/'
p525
aS'http://whitehorse.backpage.com/'
p526
aS'http://wien.backpage.com/'
p527
aS'http://antwerp.backpage.com/'
p528
aS'http://brussel.backpage.com/'
p529
aS'http://charleroi.backpage.com/'
p530
aS'http://ghent.backpage.com/'
p531
aS'http://liege.backpage.com/'
p532
aS'http://balgariya.backpage.com/'
p533
aS'http://brno.backpage.com/'
p534
aS'http://olomouc.backpage.com/'
p535
aS'http://ostrava.backpage.com/'
p536
aS'http://plzen.backpage.com/'
p537
aS'http://praha.backpage.com/'
p538
aS'http://kobenhavn.backpage.com/'
p539
aS'http://helsinki.backpage.com/'
p540
aS'http://bordeaux.backpage.com/'
p541
aS'http://bretagne.backpage.com/'
p542
aS'http://corse.backpage.com/'
p543
aS'http://dom-tom.backpage.com/'
p544
aS'http://grenoble.backpage.com/'
p545
aS'http://lille.backpage.com/'
p546
aS'http://loire.backpage.com/'
p547
aS'http://lyon.backpage.com/'
p548
aS'http://marseille.backpage.com/'
p549
aS'http://montpellier.backpage.com/'
p550
aS'http://nice.backpage.com/'
p551
aS'http://normandie.backpage.com/'
p552
aS'http://paris.backpage.com/'
p553
aS'http://strasbourg.backpage.com/'
p554
aS'http://toulouse.backpage.com/'
p555
aS'http://berlin.backpage.com/'
p556
aS'http://bremen.backpage.com/'
p557
aS'http://duesseldorf.backpage.com/'
p558
aS'http://dresden.backpage.com/'
p559
aS'http://essen.backpage.com/'
p560
aS'http://frankfurt.backpage.com/'
p561
aS'http://hamburg.backpage.com/'
p562
aS'http://hannover.backpage.com/'
p563
aS'http://heidelberg.backpage.com/'
p564
aS'http://kaiserslautern.backpage.com/'
p565
aS'http://karlsruhe.backpage.com/'
p566
aS'http://koeln.backpage.com/'
p567
aS'http://kiel.backpage.com/'
p568
aS'http://luebeck.backpage.com/'
p569
aS'http://leipzig.backpage.com/'
p570
aS'http://mannheim.backpage.com/'
p571
aS'http://muenchen.backpage.com/'
p572
aS'http://nuernberg.backpage.com/'
p573
aS'http://rostock.backpage.com/'
p574
aS'http://schwerin.backpage.com/'
p575
aS'http://stuttgart.backpage.com/'
p576
aS'http://athina.backpage.com/'
p577
aS'http://budapest.backpage.com/'
p578
aS'http://iceland.backpage.com/'
p579
aS'http://cork.backpage.com/'
p580
aS'http://derry.backpage.com/'
p581
aS'http://dublin.backpage.com/'
p582
aS'http://limerick.backpage.com/'
p583
aS'http://lisburn.backpage.com/'
p584
aS'http://waterford.backpage.com/'
p585
aS'http://haifa.backpage.com/'
p586
aS'http://jerusalem.backpage.com/'
p587
aS'http://telaviv.backpage.com/'
p588
aS'http://westbank.backpage.com/'
p589
aS'http://bologna.backpage.com/'
p590
aS'http://calabria.backpage.com/'
p591
aS'http://firenze.backpage.com/'
p592
aS'http://forli-cesena.backpage.com/'
p593
aS'http://genova.backpage.com/'
p594
aS'http://milano.backpage.com/'
p595
aS'http://napoli.backpage.com/'
p596
aS'http://perugia.backpage.com/'
p597
aS'http://roma.backpage.com/'
p598
aS'http://sardegna.backpage.com/'
p599
aS'http://sicilia.backpage.com/'
p600
aS'http://torino.backpage.com/'
p601
aS'http://venezia.backpage.com/'
p602
aS'http://luxembourg.backpage.com/'
p603
aS'http://malta.backpage.com/'
p604
aS'http://amsterdam.backpage.com/'
p605
aS'http://denhaag.backpage.com/'
p606
aS'http://eindhoven.backpage.com/'
p607
aS'http://rotterdam.backpage.com/'
p608
aS'http://utrecht.backpage.com/'
p609
aS'http://oslo.backpage.com/'
p610
aS'http://warszawa.backpage.com/'
p611
aS'http://faro-algarve.backpage.com/'
p612
aS'http://lisboa.backpage.com/'
p613
aS'http://porto.backpage.com/'
p614
aS'http://bucuresti.backpage.com/'
p615
aS'http://moskva.backpage.com/'
p616
aS'http://sankt-peterburg.backpage.com/'
p617
aS'http://alicante.backpage.com/'
p618
aS'http://baleares.backpage.com/'
p619
aS'http://barcelona.backpage.com/'
p620
aS'http://bilbao.backpage.com/'
p621
aS'http://cadiz.backpage.com/'
p622
aS'http://canarias.backpage.com/'
p623
aS'http://granada.backpage.com/'
p624
aS'http://madrid.backpage.com/'
p625
aS'http://malaga.backpage.com/'
p626
aS'http://palma.backpage.com/'
p627
aS'http://sevilla.backpage.com/'
p628
aS'http://valencia.backpage.com/'
p629
aS'http://gothenburg.backpage.com/'
p630
aS'http://malmo.backpage.com/'
p631
aS'http://stockholm.backpage.com/'
p632
aS'http://basel.backpage.com/'
p633
aS'http://bern.backpage.com/'
p634
aS'http://genf.backpage.com/'
p635
aS'http://lausanne.backpage.com/'
p636
aS'http://zurich.backpage.com/'
p637
aS'http://ukraine.backpage.com/'
p638
aS'http://aberdeen.backpage.com/'
p639
aS'http://bath.backpage.com/'
p640
aS'http://belfast.backpage.com/'
p641
aS'http://birminghamuk.backpage.com/'
p642
aS'http://brighton.backpage.com/'
p643
aS'http://bristol.backpage.com/'
p644
aS'http://cambridge.backpage.com/'
p645
aS'http://devon.backpage.com/'
p646
aS'http://eastmidlands.backpage.com/'
p647
aS'http://eastanglia.backpage.com/'
p648
aS'http://edinburgh.backpage.com/'
p649
aS'http://essex.backpage.com/'
p650
aS'http://glasgow.backpage.com/'
p651
aS'http://hampshire.backpage.com/'
p652
aS'http://kent.backpage.com/'
p653
aS'http://leeds.backpage.com/'
p654
aS'http://liverpool.backpage.com/'
p655
aS'http://london.backpage.com/'
p656
aS'http://manchester.backpage.com/'
p657
aS'http://newcastle.backpage.com/'
p658
aS'http://oxford.backpage.com/'
p659
aS'http://sheffield.backpage.com/'
p660
aS'http://wales.backpage.com/'
p661
aS'http://manama.backpage.com/'
p662
aS'http://bangladesh.backpage.com/'
p663
aS'http://beijing.backpage.com/'
p664
aS'http://chengdu.backpage.com/'
p665
aS'http://chongqing.backpage.com/'
p666
aS'http://dalian.backpage.com/'
p667
aS'http://guangzhou.backpage.com/'
p668
aS'http://hangzhou.backpage.com/'
p669
aS'http://nanjing.backpage.com/'
p670
aS'http://shanghai.backpage.com/'
p671
aS'http://shenyang.backpage.com/'
p672
aS'http://shenzhen.backpage.com/'
p673
aS'http://wuhan.backpage.com/'
p674
aS'http://xian.backpage.com/'
p675
aS'http://hongkong.backpage.com/'
p676
aS'http://ahmedabad.backpage.com/'
p677
aS'http://bangalore.backpage.com/'
p678
aS'http://bhubaneswar.backpage.com/'
p679
aS'http://chandigarh.backpage.com/'
p680
aS'http://chennai.backpage.com/'
p681
aS'http://delhi.backpage.com/'
p682
aS'http://goa.backpage.com/'
p683
aS'http://hyderabad.backpage.com/'
p684
aS'http://indore.backpage.com/'
p685
aS'http://jaipur.backpage.com/'
p686
aS'http://kerala.backpage.com/'
p687
aS'http://kolkata.backpage.com/'
p688
aS'http://lucknow.backpage.com/'
p689
aS'http://mumbai.backpage.com/'
p690
aS'http://pune.backpage.com/'
p691
aS'http://surat.backpage.com/'
p692
aS'http://jakarta.backpage.com/'
p693
aS'http://baghdad.backpage.com/'
p694
aS'http://fukuoka.backpage.com/'
p695
aS'http://hiroshima.backpage.com/'
p696
aS'http://nagoya.backpage.com/'
p697
aS'http://okinawa.backpage.com/'
p698
aS'http://osaka-kobe-kyoto.backpage.com/'
p699
aS'http://sapporo.backpage.com/'
p700
aS'http://sendai.backpage.com/'
p701
aS'http://tokyo.backpage.com/'
p702
aS'http://amman.backpage.com/'
p703
aS'http://busan.backpage.com/'
p704
aS'http://daegu.backpage.com/'
p705
aS'http://incheon.backpage.com/'
p706
aS'http://seoul.backpage.com/'
p707
aS'http://suwon.backpage.com/'
p708
aS'http://kuwait.backpage.com/'
p709
aS'http://beirut.backpage.com/'
p710
aS'http://ipoh.backpage.com/'
p711
aS'http://johorbahru.backpage.com/'
p712
aS'http://kualalumpur.backpage.com/'
p713
aS'http://kuching.backpage.com/'
p714
aS'http://penang.backpage.com/'
p715
aS'http://muscat.backpage.com/'
p716
aS'http://pakistan.backpage.com/'
p717
aS'http://cebu.backpage.com/'
p718
aS'http://davao.backpage.com/'
p719
aS'http://manila.backpage.com/'
p720
aS'http://pampanga.backpage.com/'
p721
aS'http://doha.backpage.com/'
p722
aS'http://singapore.backpage.com/'
p723
aS'http://taipei.backpage.com/'
p724
aS'http://bangkok.backpage.com/'
p725
aS'http://istanbul.backpage.com/'
p726
aS'http://abudhabi.backpage.com/'
p727
aS'http://dubai.backpage.com/'
p728
aS'http://sharjah.backpage.com/'
p729
aS'http://vietnam.backpage.com/'
p730
aS'http://adelaide.backpage.com/'
p731
aS'http://brisbane.backpage.com/'
p732
aS'http://cairns.backpage.com/'
p733
aS'http://canberra.backpage.com/'
p734
aS'http://darwin.backpage.com/'
p735
aS'http://goldcoast.backpage.com/'
p736
aS'http://hobart.backpage.com/'
p737
aS'http://melbourne.backpage.com/'
p738
aS'http://newcastle-australia.backpage.com/'
p739
aS'http://perth.backpage.com/'
p740
aS'http://sydney.backpage.com/'
p741
aS'http://guam.backpage.com/'
p742
aS'http://auckland.backpage.com/'
p743
aS'http://christchurch.backpage.com/'
p744
aS'http://dunedin.backpage.com/'
p745
aS'http://wellington.backpage.com/'
p746
aS'http://buenosaires.backpage.com/'
p747
aS'http://cordoba.backpage.com/'
p748
aS'http://laplata.backpage.com/'
p749
aS'http://mendoza.backpage.com/'
p750
aS'http://rosario.backpage.com/'
p751
aS'http://southargentina.backpage.com/'
p752
aS'http://tucuman.backpage.com/'
p753
aS'http://lapaz.backpage.com/'
p754
aS'http://bahia.backpage.com/'
p755
aS'http://belem.backpage.com/'
p756
aS'http://belohorizonte.backpage.com/'
p757
aS'http://brasilia.backpage.com/'
p758
aS'http://curitiba.backpage.com/'
p759
aS'http://fortaleza.backpage.com/'
p760
aS'http://manaus.backpage.com/'
p761
aS'http://portoalegre.backpage.com/'
p762
aS'http://recife.backpage.com/'
p763
aS'http://riodejaneiro.backpage.com/'
p764
aS'http://saopaulo.backpage.com/'
p765
aS'http://bahamas.backpage.com/'
p766
aS'http://caribbean.backpage.com/'
p767
aS'http://dominican.backpage.com/'
p768
aS'http://jamaica.backpage.com/'
p769
aS'http://puertorico.backpage.com/'
p770
aS'http://virginislands.backpage.com/'
p771
aS'http://antofagasta.backpage.com/'
p772
aS'http://concepcion.backpage.com/'
p773
aS'http://iquique.backpage.com/'
p774
aS'http://laserena.backpage.com/'
p775
aS'http://montt.backpage.com/'
p776
aS'http://santiago.backpage.com/'
p777
aS'http://temuco.backpage.com/'
p778
aS'http://valparaiso.backpage.com/'
p779
aS'http://barranquilla.backpage.com/'
p780
aS'http://bogota.backpage.com/'
p781
aS'http://cali.backpage.com/'
p782
aS'http://cartagena.backpage.com/'
p783
aS'http://cucuta.backpage.com/'
p784
aS'http://medellin.backpage.com/'
p785
aS'http://costarica.backpage.com/'
p786
aS'http://cuenca.backpage.com/'
p787
aS'http://guayaquil.backpage.com/'
p788
aS'http://quito.backpage.com/'
p789
aS'http://elsalvador.backpage.com/'
p790
aS'http://guatemala.backpage.com/'
p791
aS'http://acapulco.backpage.mx/'
p792
aS'http://bajacalifornia.backpage.mx/'
p793
aS'http://chihuahua.backpage.mx/'
p794
aS'http://ciudadjuarez.backpage.mx/'
p795
aS'http://df.backpage.mx/'
p796
aS'http://guadalajara.backpage.mx/'
p797
aS'http://guanajuato.backpage.mx/'
p798
aS'http://hermosillo.backpage.mx/'
p799
aS'http://mazatlan.backpage.mx/'
p800
aS'http://monterrey.backpage.mx/'
p801
aS'http://oaxaca.backpage.mx/'
p802
aS'http://puebla.backpage.mx/'
p803
aS'http://puertovallarta.backpage.mx/'
p804
aS'http://tijuana.backpage.mx/'
p805
aS'http://veracruz.backpage.mx/'
p806
aS'http://yucatan.backpage.mx/'
p807
aS'http://managua.backpage.com/'
p808
aS'http://panama.backpage.com/'
p809
aS'http://arequipa.backpage.com/'
p810
aS'http://chiclayo.backpage.com/'
p811
aS'http://iquitos.backpage.com/'
p812
aS'http://lima.backpage.com/'
p813
aS'http://piura.backpage.com/'
p814
aS'http://trujillo.backpage.com/'
p815
aS'http://montevideo.backpage.com/'
p816
aS'http://caracas.backpage.com/'
p817
aS'http://cameroon.backpage.com/'
p818
aS'http://cairo.backpage.com/'
p819
aS'http://morocco.backpage.com/'
p820
aS'http://nigeria.backpage.com/'
p821
aS'http://capetown.backpage.com/'
p822
aS'http://durban.backpage.com/'
p823
aS'http://johannesburg.backpage.com/'
p824
aS'http://pretoria.backpage.com/'
p825
aS'https://my.backpage.com/'
p826
a.